; Function Attrs: nounwind uwtable
define internal void @destroyContextGLX(ptr noundef captures(none) %0) #0 {
  %2 = getelementptr inbounds nuw i8, ptr %0, i64 704
  %3 = getelementptr inbounds nuw i8, ptr %0, i64 712
  %4 = load i64, ptr %3, align 8, !tbaa !178
  %.not = icmp eq i64 %4, 0
  br i1 %.not, label %8, label %5

5:                                                ; preds = %1
  %6 = load ptr, ptr getelementptr inbounds nuw (i8, ptr @_glfw, i64 143480), align 8, !tbaa !105
  %7 = load ptr, ptr getelementptr inbounds nuw (i8, ptr @_glfw, i64 137840), align 8, !tbaa !109
  tail call void %6(ptr noundef %7, i64 noundef %4) #4
  store i64 0, ptr %3, align 8, !tbaa !178
  br label %8

8:                                                ; preds = %5, %1
  %9 = load ptr, ptr %2, align 8, !tbaa !131
  %.not7 = icmp eq ptr %9, null
  br i1 %.not7, label %13, label %10

10:                                               ; preds = %8
  %11 = load ptr, ptr getelementptr inbounds nuw (i8, ptr @_glfw, i64 143424), align 8, !tbaa !99
  %12 = load ptr, ptr getelementptr inbounds nuw (i8, ptr @_glfw, i64 137840), align 8, !tbaa !109
  tail call void %11(ptr noundef %12, ptr noundef nonnull %9) #4
  store ptr null, ptr %2, align 8, !tbaa !131
  br label %13

13:                                               ; preds = %10, %8
  ret void
}